target datalayout = "e-m:e-p270:32:32-p271:32:32-p272:64:64-i64:64-i128:128-f80:128-n8:16:32:64-S128"
target triple = "x86_64-pc-linux-gnu"

; Function Attrs: nounwind uwtable
define dso_local void @print_tar_number(ptr noundef %0, i32 noundef %1, i64 noundef %2) #0 {
  %4 = alloca ptr, align 8
  %5 = alloca i32, align 4
  %6 = alloca i64, align 8
  store ptr %0, ptr %4, align 8
  store i32 %1, ptr %5, align 4
  store i64 %2, ptr %6, align 8
  %7 = load i64, ptr %6, align 8
  %8 = load i32, ptr %5, align 4
  %9 = sub i32 %8, 1
  %10 = mul i32 %9, 3
  %11 = zext i32 %10 to i64
  %12 = shl i64 1, %11
  %13 = icmp ult i64 %7, %12
  br i1 %13, label %14, label %36

14:                                               ; preds = %3
  %15 = load ptr, ptr %4, align 8
  %16 = load i32, ptr %5, align 4
  %17 = add i32 %16, -1
  store i32 %17, ptr %5, align 4
  %18 = sext i32 %17 to i64
  %19 = getelementptr inbounds i8, ptr %15, i64 %18
  store i8 32, ptr %19, align 1
  br label %20

20:                                               ; preds = %23, %14
  %21 = load i32, ptr %5, align 4
  %22 = icmp ne i32 %21, 0
  br i1 %22, label %23, label %35

23:                                               ; preds = %20
  %24 = load i64, ptr %6, align 8
  %25 = and i64 %24, 7
  %26 = add i64 %25, 48
  %27 = trunc i64 %26 to i8
  %28 = load ptr, ptr %4, align 8
  %29 = load i32, ptr %5, align 4
  %30 = add i32 %29, -1
  store i32 %30, ptr %5, align 4
  %31 = sext i32 %30 to i64
  %32 = getelementptr inbounds i8, ptr %28, i64 %31
  store i8 %27, ptr %32, align 1
  %33 = load i64, ptr %6, align 8
  %34 = lshr i64 %33, 3
  store i64 %34, ptr %6, align 8
  br label %20, !llvm.loop !4

35:                                               ; preds = %20
  br label %54

36:                                               ; preds = %3
  %37 = load ptr, ptr %4, align 8
  %38 = getelementptr inbounds i8, ptr %37, i64 0
  store i8 -128, ptr %38, align 1
  br label %39

39:                                               ; preds = %42, %36
  %40 = load i32, ptr %5, align 4
  %41 = icmp sgt i32 %40, 1
  br i1 %41, label %42, label %53

42:                                               ; preds = %39
  %43 = load i64, ptr %6, align 8
  %44 = and i64 %43, 255
  %45 = trunc i64 %44 to i8
  %46 = load ptr, ptr %4, align 8
  %47 = load i32, ptr %5, align 4
  %48 = add i32 %47, -1
  store i32 %48, ptr %5, align 4
  %49 = sext i32 %48 to i64
  %50 = getelementptr inbounds i8, ptr %46, i64 %49
  store i8 %45, ptr %50, align 1
  %51 = load i64, ptr %6, align 8
  %52 = lshr i64 %51, 8
  store i64 %52, ptr %6, align 8
  br label %39, !llvm.loop !6

53:                                               ; preds = %39
  br label %54

54:                                               ; preds = %53, %35
  ret void
}