; Function Attrs: nofree norecurse nosync nounwind memory(argmem: write) uwtable
define dso_local void @print_tar_number(ptr noundef writeonly captures(none) %0, i32 noundef %1, i64 noundef %2) local_unnamed_addr #0 {
  %4 = mul i32 %1, 3
  %5 = add i32 %4, -3
  %6 = zext nneg i32 %5 to i64
  %.highbits = lshr i64 %2, %6
  %7 = icmp eq i64 %.highbits, 0
  br i1 %7, label %8, label %19

8:                                                ; preds = %3
  %9 = add i32 %1, -1
  %10 = sext i32 %9 to i64
  %11 = getelementptr inbounds i8, ptr %0, i64 %10
  store i8 32, ptr %11, align 1
  %.not21 = icmp eq i32 %9, 0
  br i1 %.not21, label %.loopexit, label %.lr.ph24

.lr.ph24:                                         ; preds = %8, %.lr.ph24
  %.023 = phi i64 [ %18, %.lr.ph24 ], [ %2, %8 ]
  %.01422 = phi i32 [ %15, %.lr.ph24 ], [ %9, %8 ]
  %12 = trunc i64 %.023 to i8
  %13 = and i8 %12, 7
  %14 = or disjoint i8 %13, 48
  %15 = add i32 %.01422, -1
  %16 = sext i32 %15 to i64
  %17 = getelementptr inbounds i8, ptr %0, i64 %16
  store i8 %14, ptr %17, align 1
  %18 = lshr i64 %.023, 3
  %.not = icmp eq i32 %15, 0
  br i1 %.not, label %.loopexit, label %.lr.ph24, !llvm.loop !4

19:                                               ; preds = %3
  store i8 -128, ptr %0, align 1
  %20 = icmp sgt i32 %1, 1
  br i1 %20, label %.lr.ph.preheader, label %.loopexit

.lr.ph.preheader:                                 ; preds = %19
  %21 = zext nneg i32 %1 to i64
  br label %.lr.ph

.lr.ph:                                           ; preds = %.lr.ph.preheader, %.lr.ph
  %indvars.iv = phi i64 [ %21, %.lr.ph.preheader ], [ %indvars.iv.next, %.lr.ph ]
  %.120 = phi i64 [ %2, %.lr.ph.preheader ], [ %24, %.lr.ph ]
  %22 = trunc i64 %.120 to i8
  %indvars.iv.next = add nsw i64 %indvars.iv, -1
  %23 = getelementptr inbounds nuw i8, ptr %0, i64 %indvars.iv.next
  store i8 %22, ptr %23, align 1
  %24 = lshr i64 %.120, 8
  %25 = icmp samesign ugt i64 %indvars.iv, 2
  br i1 %25, label %.lr.ph, label %.loopexit, !llvm.loop !6

.loopexit:                                        ; preds = %.lr.ph, %.lr.ph24, %19, %8
  ret void
}